; Function Attrs: mustprogress nofree norecurse nosync nounwind willreturn memory(argmem: readwrite) uwtable
define internal void @fromFLTto16SE(ptr nocapture noundef writeonly %0, ptr nocapture noundef readonly %1) #3 {
  %3 = load float, ptr %1, align 4
  %4 = fpext float %3 to double
  %5 = fmul double %4, 6.553500e+04
  %6 = fadd double %5, 5.000000e-01
  %7 = fcmp ugt double %6, 0.000000e+00
  br i1 %7, label %8, label %_cmsQuickSaturateWord.exit

8:                                                ; preds = %2
  %9 = fcmp ult double %6, 6.553500e+04
  br i1 %9, label %10, label %_cmsQuickSaturateWord.exit

10:                                               ; preds = %8
  %11 = fadd double %6, -3.276700e+04
  %12 = tail call double @llvm.floor.f64(double %11)
  %13 = fptosi double %12 to i32
  %14 = trunc i32 %13 to i16
  %15 = add i16 %14, 32767
  br label %_cmsQuickSaturateWord.exit

_cmsQuickSaturateWord.exit:                       ; preds = %2, %8, %10
  %.0.i = phi i16 [ %15, %10 ], [ 0, %2 ], [ -1, %8 ]
  %rev = tail call i16 @llvm.bswap.i16(i16 %.0.i)
  store i16 %rev, ptr %0, align 2
  ret void
}